; Function Attrs: mustprogress nounwind uwtable
define internal void @_ZL19cmDestroySourceFilePv(ptr noundef %0) #3 {
  %2 = load ptr, ptr %0, align 8
  %.not = icmp eq ptr %2, null
  br i1 %.not, label %3, label %4

3:                                                ; preds = %1
  tail call void @_ZN22cmCPluginAPISourceFileD2Ev(ptr noundef nonnull align 8 dereferenceable(184) %0) #30
  tail call void @_ZdlPv(ptr noundef nonnull %0) #32
  br label %4

4:                                                ; preds = %3, %1
  ret void
}